ccopy_reg
_reconstructor
p1
(cdatamodel.scenario
Scenario
p2
c__builtin__
object
p3
NtRp4
(dp5
S'requests'
p6
(lp7
g1
(cdatamodel.requests
Request
p8
g3
NtRp9
(dp10
S'tail'
p11
S'Amsterdam'
p12
sS'max_deviation'
p13
I1
sS'capacity'
p14
F6
sS'head'
p15
S'Athens'
p16
sbag1
(g8
g3
NtRp17
(dp18
g11
S'Amsterdam'
p19
sg13
I1
sg14
F6
sg15
S'Barcelona'
p20
sbag1
(g8
g3
NtRp21
(dp22
g11
S'Amsterdam'
p23
sg13
I1
sg14
F2
sg15
S'Belgrade'
p24
sbag1
(g8
g3
NtRp25
(dp26
g11
S'Amsterdam'
p27
sg13
I1
sg14
F16
sg15
S'Berlin'
p28
sbag1
(g8
g3
NtRp29
(dp30
g11
S'Amsterdam'
p31
sg13
I1
sg14
F4
sg15
S'Bordeaux'
p32
sbag1
(g8
g3
NtRp33
(dp34
g11
S'Amsterdam'
p35
sg13
I1
sg14
F16
sg15
S'Brussels'
p36
sbag1
(g8
g3
NtRp37
(dp38
g11
S'Amsterdam'
p39
sg13
I1
sg14
F4
sg15
S'Budapest'
p40
sbag1
(g8
g3
NtRp41
(dp42
g11
S'Amsterdam'
p43
sg13
I1
sg14
F8
sg15
S'Copenhagen'
p44
sbag1
(g8
g3
NtRp45
(dp46
g11
S'Amsterdam'
p47
sg13
I1
sg14
F4
sg15
S'Dublin'
p48
sbag1
(g8
g3
NtRp49
(dp50
g11
S'Amsterdam'
p51
sg13
I1
sg14
F20
sg15
S'Frankfurt'
p52
sbag1
(g8
g3
NtRp53
(dp54
g11
S'Amsterdam'
p55
sg13
I1
sg14
F26
sg15
S'Glasgow'
p56
sbag1
(g8
g3
NtRp57
(dp58
g11
S'Amsterdam'
p59
sg13
I1
sg14
F28
sg15
S'Hamburg'
p60
sbag1
(g8
g3
NtRp61
(dp62
g11
S'Amsterdam'
p63
sg13
I1
sg14
F38
sg15
S'London'
p64
sbag1
(g8
g3
NtRp65
(dp66
g11
S'Amsterdam'
p67
sg13
I1
sg14
F8
sg15
S'Lyon'
p68
sbag1
(g8
g3
NtRp69
(dp70
g11
S'Amsterdam'
p71
sg13
I1
sg14
F6
sg15
S'Madrid'
p72
sbag1
(g8
g3
NtRp73
(dp74
g11
S'Amsterdam'
p75
sg13
I1
sg14
F16
sg15
S'Milan'
p76
sbag1
(g8
g3
NtRp77
(dp78
g11
S'Amsterdam'
p79
sg13
I1
sg14
F14
sg15
S'Munich'
p80
sbag1
(g8
g3
NtRp81
(dp82
g11
S'Amsterdam'
p83
sg13
I1
sg14
F8
sg15
S'Oslo'
p84
sbag1
(g8
g3
NtRp85
(dp86
g11
S'Amsterdam'
p87
sg13
I1
sg14
F10
sg15
S'Paris'
p88
sbag1
(g8
g3
NtRp89
(dp90
g11
S'Amsterdam'
p91
sg13
I1
sg14
F8
sg15
S'Prague'
p92
sbag1
(g8
g3
NtRp93
(dp94
g11
S'Amsterdam'
p95
sg13
I1
sg14
F14
sg15
S'Rome'
p96
sbag1
(g8
g3
NtRp97
(dp98
g11
S'Amsterdam'
p99
sg13
I1
sg14
F12
sg15
S'Stockholm'
p100
sbag1
(g8
g3
NtRp101
(dp102
g11
S'Amsterdam'
p103
sg13
I1
sg14
F10
sg15
S'Strasbourg'
p104
sbag1
(g8
g3
NtRp105
(dp106
g11
S'Amsterdam'
p107
sg13
I1
sg14
F6
sg15
S'Vienna'
p108
sbag1
(g8
g3
NtRp109
(dp110
g11
S'Amsterdam'
p111
sg13
I1
sg14
F18
sg15
S'Warsaw'
p112
sbag1
(g8
g3
NtRp113
(dp114
g11
S'Amsterdam'
p115
sg13
I1
sg14
F2
sg15
S'Zagreb'
p116
sbag1
(g8
g3
NtRp117
(dp118
g11
S'Amsterdam'
p119
sg13
I1
sg14
F8
sg15
S'Zurich'
p120
sbag1
(g8
g3
NtRp121
(dp122
g11
S'Athens'
p123
sg13
I1
sg14
F2
sg15
S'Barcelona'
p124
sbag1
(g8
g3
NtRp125
(dp126
g11
S'Athens'
p127
sg13
I1
sg14
F2
sg15
S'Belgrade'
p128
sbag1
(g8
g3
NtRp129
(dp130
g11
S'Athens'
p131
sg13
I1
sg14
F2
sg15
S'Berlin'
p132
sbag1
(g8
g3
NtRp133
(dp134
g11
S'Athens'
p135
sg13
I1
sg14
F2
sg15
S'Bordeaux'
p136
sbag1
(g8
g3
NtRp137
(dp138
g11
S'Athens'
p139
sg13
I1
sg14
F2
sg15
S'Brussels'
p140
sbag1
(g8
g3
NtRp141
(dp142
g11
S'Athens'
p143
sg13
I1
sg14
F2
sg15
S'Budapest'
p144
sbag1
(g8
g3
NtRp145
(dp146
g11
S'Athens'
p147
sg13
I1
sg14
F2
sg15
S'Copenhagen'
p148
sbag1
(g8
g3
NtRp149
(dp150
g11
S'Athens'
p151
sg13
I1
sg14
F2
sg15
S'Dublin'
p152
sbag1
(g8
g3
NtRp153
(dp154
g11
S'Athens'
p155
sg13
I1
sg14
F8
sg15
S'Frankfurt'
p156
sbag1
(g8
g3
NtRp157
(dp158
g11
S'Athens'
p159
sg13
I1
sg14
F2
sg15
S'Glasgow'
p160
sbag1
(g8
g3
NtRp161
(dp162
g11
S'Athens'
p163
sg13
I1
sg14
F2
sg15
S'Hamburg'
p164
sbag1
(g8
g3
NtRp165
(dp166
g11
S'Athens'
p167
sg13
I1
sg14
F4
sg15
S'London'
p168
sbag1
(g8
g3
NtRp169
(dp170
g11
S'Athens'
p171
sg13
I1
sg14
F2
sg15
S'Lyon'
p172
sbag1
(g8
g3
NtRp173
(dp174
g11
S'Athens'
p175
sg13
I1
sg14
F2
sg15
S'Madrid'
p176
sbag1
(g8
g3
NtRp177
(dp178
g11
S'Athens'
p179
sg13
I1
sg14
F2
sg15
S'Milan'
p180
sbag1
(g8
g3
NtRp181
(dp182
g11
S'Athens'
p183
sg13
I1
sg14
F2
sg15
S'Munich'
p184
sbag1
(g8
g3
NtRp185
(dp186
g11
S'Athens'
p187
sg13
I1
sg14
F2
sg15
S'Oslo'
p188
sbag1
(g8
g3
NtRp189
(dp190
g11
S'Athens'
p191
sg13
I1
sg14
F2
sg15
S'Paris'
p192
sbag1
(g8
g3
NtRp193
(dp194
g11
S'Athens'
p195
sg13
I1
sg14
F2
sg15
S'Prague'
p196
sbag1
(g8
g3
NtRp197
(dp198
g11
S'Athens'
p199
sg13
I1
sg14
F2
sg15
S'Rome'
p200
sbag1
(g8
g3
NtRp201
(dp202
g11
S'Athens'
p203
sg13
I1
sg14
F2
sg15
S'Stockholm'
p204
sbag1
(g8
g3
NtRp205
(dp206
g11
S'Athens'
p207
sg13
I1
sg14
F2
sg15
S'Strasbourg'
p208
sbag1
(g8
g3
NtRp209
(dp210
g11
S'Athens'
p211
sg13
I1
sg14
F2
sg15
S'Vienna'
p212
sbag1
(g8
g3
NtRp213
(dp214
g11
S'Athens'
p215
sg13
I1
sg14
F2
sg15
S'Warsaw'
p216
sbag1
(g8
g3
NtRp217
(dp218
g11
S'Athens'
p219
sg13
I1
sg14
F2
sg15
S'Zagreb'
p220
sbag1
(g8
g3
NtRp221
(dp222
g11
S'Athens'
p223
sg13
I1
sg14
F2
sg15
S'Zurich'
p224
sbag1
(g8
g3
NtRp225
(dp226
g11
S'Barcelona'
p227
sg13
I1
sg14
F2
sg15
S'Belgrade'
p228
sbag1
(g8
g3
NtRp229
(dp230
g11
S'Barcelona'
p231
sg13
I1
sg14
F4
sg15
S'Berlin'
p232
sbag1
(g8
g3
NtRp233
(dp234
g11
S'Barcelona'
p235
sg13
I1
sg14
F4
sg15
S'Bordeaux'
p236
sbag1
(g8
g3
NtRp237
(dp238
g11
S'Barcelona'
p239
sg13
I1
sg14
F2
sg15
S'Brussels'
p240
sbag1
(g8
g3
NtRp241
(dp242
g11
S'Barcelona'
p243
sg13
I1
sg14
F2
sg15
S'Budapest'
p244
sbag1
(g8
g3
NtRp245
(dp246
g11
S'Barcelona'
p247
sg13
I1
sg14
F2
sg15
S'Copenhagen'
p248
sbag1
(g8
g3
NtRp249
(dp250
g11
S'Barcelona'
p251
sg13
I1
sg14
F2
sg15
S'Dublin'
p252
sbag1
(g8
g3
NtRp253
(dp254
g11
S'Barcelona'
p255
sg13
I1
sg14
F18
sg15
S'Frankfurt'
p256
sbag1
(g8
g3
NtRp257
(dp258
g11
S'Barcelona'
p259
sg13
I1
sg14
F4
sg15
S'Glasgow'
p260
sbag1
(g8
g3
NtRp261
(dp262
g11
S'Barcelona'
p263
sg13
I1
sg14
F4
sg15
S'Hamburg'
p264
sbag1
(g8
g3
NtRp265
(dp266
g11
S'Barcelona'
p267
sg13
I1
sg14
F12
sg15
S'London'
p268
sbag1
(g8
g3
NtRp269
(dp270
g11
S'Barcelona'
p271
sg13
I1
sg14
F4
sg15
S'Lyon'
p272
sbag1
(g8
g3
NtRp273
(dp274
g11
S'Barcelona'
p275
sg13
I1
sg14
F6
sg15
S'Madrid'
p276
sbag1
(g8
g3
NtRp277
(dp278
g11
S'Barcelona'
p279
sg13
I1
sg14
F6
sg15
S'Milan'
p280
sbag1
(g8
g3
NtRp281
(dp282
g11
S'Barcelona'
p283
sg13
I1
sg14
F4
sg15
S'Munich'
p284
sbag1
(g8
g3
NtRp285
(dp286
g11
S'Barcelona'
p287
sg13
I1
sg14
F2
sg15
S'Oslo'
p288
sbag1
(g8
g3
NtRp289
(dp290
g11
S'Barcelona'
p291
sg13
I1
sg14
F2
sg15
S'Paris'
p292
sbag1
(g8
g3
NtRp293
(dp294
g11
S'Barcelona'
p295
sg13
I1
sg14
F2
sg15
S'Prague'
p296
sbag1
(g8
g3
NtRp297
(dp298
g11
S'Barcelona'
p299
sg13
I1
sg14
F4
sg15
S'Rome'
p300
sbag1
(g8
g3
NtRp301
(dp302
g11
S'Barcelona'
p303
sg13
I1
sg14
F2
sg15
S'Stockholm'
p304
sbag1
(g8
g3
NtRp305
(dp306
g11
S'Barcelona'
p307
sg13
I1
sg14
F2
sg15
S'Strasbourg'
p308
sbag1
(g8
g3
NtRp309
(dp310
g11
S'Barcelona'
p311
sg13
I1
sg14
F2
sg15
S'Vienna'
p312
sbag1
(g8
g3
NtRp313
(dp314
g11
S'Barcelona'
p315
sg13
I1
sg14
F4
sg15
S'Warsaw'
p316
sbag1
(g8
g3
NtRp317
(dp318
g11
S'Barcelona'
p319
sg13
I1
sg14
F2
sg15
S'Zagreb'
p320
sbag1
(g8
g3
NtRp321
(dp322
g11
S'Barcelona'
p323
sg13
I1
sg14
F2
sg15
S'Zurich'
p324
sbag1
(g8
g3
NtRp325
(dp326
g11
S'Belgrade'
p327
sg13
I1
sg14
F2
sg15
S'Berlin'
p328
sbag1
(g8
g3
NtRp329
(dp330
g11
S'Belgrade'
p331
sg13
I1
sg14
F2
sg15
S'Bordeaux'
p332
sbag1
(g8
g3
NtRp333
(dp334
g11
S'Belgrade'
p335
sg13
I1
sg14
F2
sg15
S'Brussels'
p336
sbag1
(g8
g3
NtRp337
(dp338
g11
S'Belgrade'
p339
sg13
I1
sg14
F2
sg15
S'Budapest'
p340
sbag1
(g8
g3
NtRp341
(dp342
g11
S'Belgrade'
p343
sg13
I1
sg14
F2
sg15
S'Copenhagen'
p344
sbag1
(g8
g3
NtRp345
(dp346
g11
S'Belgrade'
p347
sg13
I1
sg14
F2
sg15
S'Dublin'
p348
sbag1
(g8
g3
NtRp349
(dp350
g11
S'Belgrade'
p351
sg13
I1
sg14
F4
sg15
S'Frankfurt'
p352
sbag1
(g8
g3
NtRp353
(dp354
g11
S'Belgrade'
p355
sg13
I1
sg14
F2
sg15
S'Glasgow'
p356
sbag1
(g8
g3
NtRp357
(dp358
g11
S'Belgrade'
p359
sg13
I1
sg14
F2
sg15
S'Hamburg'
p360
sbag1
(g8
g3
NtRp361
(dp362
g11
S'Belgrade'
p363
sg13
I1
sg14
F2
sg15
S'London'
p364
sbag1
(g8
g3
NtRp365
(dp366
g11
S'Belgrade'
p367
sg13
I1
sg14
F2
sg15
S'Lyon'
p368
sbag1
(g8
g3
NtRp369
(dp370
g11
S'Belgrade'
p371
sg13
I1
sg14
F2
sg15
S'Madrid'
p372
sbag1
(g8
g3
NtRp373
(dp374
g11
S'Belgrade'
p375
sg13
I1
sg14
F2
sg15
S'Milan'
p376
sbag1
(g8
g3
NtRp377
(dp378
g11
S'Belgrade'
p379
sg13
I1
sg14
F2
sg15
S'Munich'
p380
sbag1
(g8
g3
NtRp381
(dp382
g11
S'Belgrade'
p383
sg13
I1
sg14
F2
sg15
S'Oslo'
p384
sbag1
(g8
g3
NtRp385
(dp386
g11
S'Belgrade'
p387
sg13
I1
sg14
F2
sg15
S'Paris'
p388
sbag1
(g8
g3
NtRp389
(dp390
g11
S'Belgrade'
p391
sg13
I1
sg14
F2
sg15
S'Prague'
p392
sbag1
(g8
g3
NtRp393
(dp394
g11
S'Belgrade'
p395
sg13
I1
sg14
F2
sg15
S'Rome'
p396
sbag1
(g8
g3
NtRp397
(dp398
g11
S'Belgrade'
p399
sg13
I1
sg14
F2
sg15
S'Stockholm'
p400
sbag1
(g8
g3
NtRp401
(dp402
g11
S'Belgrade'
p403
sg13
I1
sg14
F2
sg15
S'Strasbourg'
p404
sbag1
(g8
g3
NtRp405
(dp406
g11
S'Belgrade'
p407
sg13
I1
sg14
F2
sg15
S'Vienna'
p408
sbag1
(g8
g3
NtRp409
(dp410
g11
S'Belgrade'
p411
sg13
I1
sg14
F2
sg15
S'Warsaw'
p412
sbag1
(g8
g3
NtRp413
(dp414
g11
S'Belgrade'
p415
sg13
I1
sg14
F2
sg15
S'Zagreb'
p416
sbag1
(g8
g3
NtRp417
(dp418
g11
S'Belgrade'
p419
sg13
I1
sg14
F2
sg15
S'Zurich'
p420
sbag1
(g8
g3
NtRp421
(dp422
g11
S'Berlin'
p423
sg13
I1
sg14
F2
sg15
S'Bordeaux'
p424
sbag1
(g8
g3
NtRp425
(dp426
g11
S'Berlin'
p427
sg13
I1
sg14
F4
sg15
S'Brussels'
p428
sbag1
(g8
g3
NtRp429
(dp430
g11
S'Berlin'
p431
sg13
I1
sg14
F2
sg15
S'Budapest'
p432
sbag1
(g8
g3
NtRp433
(dp434
g11
S'Berlin'
p435
sg13
I1
sg14
F4
sg15
S'Copenhagen'
p436
sbag1
(g8
g3
NtRp437
(dp438
g11
S'Berlin'
p439
sg13
I1
sg14
F2
sg15
S'Dublin'
p440
sbag1
(g8
g3
NtRp441
(dp442
g11
S'Berlin'
p443
sg13
I1
sg14
F28
sg15
S'Frankfurt'
p444
sbag1
(g8
g3
NtRp445
(dp446
g11
S'Berlin'
p447
sg13
I1
sg14
F8
sg15
S'Glasgow'
p448
sbag1
(g8
g3
NtRp449
(dp450
g11
S'Berlin'
p451
sg13
I1
sg14
F14
sg15
S'Hamburg'
p452
sbag1
(g8
g3
NtRp453
(dp454
g11
S'Berlin'
p455
sg13
I1
sg14
F12
sg15
S'London'
p456
sbag1
(g8
g3
NtRp457
(dp458
g11
S'Berlin'
p459
sg13
I1
sg14
F4
sg15
S'Lyon'
p460
sbag1
(g8
g3
NtRp461
(dp462
g11
S'Berlin'
p463
sg13
I1
sg14
F2
sg15
S'Madrid'
p464
sbag1
(g8
g3
NtRp465
(dp466
g11
S'Berlin'
p467
sg13
I1
sg14
F6
sg15
S'Milan'
p468
sbag1
(g8
g3
NtRp469
(dp470
g11
S'Berlin'
p471
sg13
I1
sg14
F8
sg15
S'Munich'
p472
sbag1
(g8
g3
NtRp473
(dp474
g11
S'Berlin'
p475
sg13
I1
sg14
F2
sg15
S'Oslo'
p476
sbag1
(g8
g3
NtRp477
(dp478
g11
S'Berlin'
p479
sg13
I1
sg14
F4
sg15
S'Paris'
p480
sbag1
(g8
g3
NtRp481
(dp482
g11
S'Berlin'
p483
sg13
I1
sg14
F8
sg15
S'Prague'
p484
sbag1
(g8
g3
NtRp485
(dp486
g11
S'Berlin'
p487
sg13
I1
sg14
F4
sg15
S'Rome'
p488
sbag1
(g8
g3
NtRp489
(dp490
g11
S'Berlin'
p491
sg13
I1
sg14
F4
sg15
S'Stockholm'
p492
sbag1
(g8
g3
NtRp493
(dp494
g11
S'Berlin'
p495
sg13
I1
sg14
F4
sg15
S'Strasbourg'
p496
sbag1
(g8
g3
NtRp497
(dp498
g11
S'Berlin'
p499
sg13
I1
sg14
F4
sg15
S'Vienna'
p500
sbag1
(g8
g3
NtRp501
(dp502
g11
S'Berlin'
p503
sg13
I1
sg14
F12
sg15
S'Warsaw'
p504
sbag1
(g8
g3
NtRp505
(dp506
g11
S'Berlin'
p507
sg13
I1
sg14
F2
sg15
S'Zagreb'
p508
sbag1
(g8
g3
NtRp509
(dp510
g11
S'Berlin'
p511
sg13
I1
sg14
F4
sg15
S'Zurich'
p512
sbag1
(g8
g3
NtRp513
(dp514
g11
S'Bordeaux'
p515
sg13
I1
sg14
F2
sg15
S'Brussels'
p516
sbag1
(g8
g3
NtRp517
(dp518
g11
S'Bordeaux'
p519
sg13
I1
sg14
F2
sg15
S'Budapest'
p520
sbag1
(g8
g3
NtRp521
(dp522
g11
S'Bordeaux'
p523
sg13
I1
sg14
F2
sg15
S'Copenhagen'
p524
sbag1
(g8
g3
NtRp525
(dp526
g11
S'Bordeaux'
p527
sg13
I1
sg14
F2
sg15
S'Dublin'
p528
sbag1
(g8
g3
NtRp529
(dp530
g11
S'Bordeaux'
p531
sg13
I1
sg14
F8
sg15
S'Frankfurt'
p532
sbag1
(g8
g3
NtRp533
(dp534
g11
S'Bordeaux'
p535
sg13
I1
sg14
F4
sg15
S'Glasgow'
p536
sbag1
(g8
g3
NtRp537
(dp538
g11
S'Bordeaux'
p539
sg13
I1
sg14
F2
sg15
S'Hamburg'
p540
sbag1
(g8
g3
NtRp541
(dp542
g11
S'Bordeaux'
p543
sg13
I1
sg14
F16
sg15
S'London'
p544
sbag1
(g8
g3
NtRp545
(dp546
g11
S'Bordeaux'
p547
sg13
I1
sg14
F4
sg15
S'Lyon'
p548
sbag1
(g8
g3
NtRp549
(dp550
g11
S'Bordeaux'
p551
sg13
I1
sg14
F4
sg15
S'Madrid'
p552
sbag1
(g8
g3
NtRp553
(dp554
g11
S'Bordeaux'
p555
sg13
I1
sg14
F4
sg15
S'Milan'
p556
sbag1
(g8
g3
NtRp557
(dp558
g11
S'Bordeaux'
p559
sg13
I1
sg14
F4
sg15
S'Munich'
p560
sbag1
(g8
g3
NtRp561
(dp562
g11
S'Bordeaux'
p563
sg13
I1
sg14
F2
sg15
S'Oslo'
p564
sbag1
(g8
g3
NtRp565
(dp566
g11
S'Bordeaux'
p567
sg13
I1
sg14
F4
sg15
S'Paris'
p568
sbag1
(g8
g3
NtRp569
(dp570
g11
S'Bordeaux'
p571
sg13
I1
sg14
F2
sg15
S'Prague'
p572
sbag1
(g8
g3
NtRp573
(dp574
g11
S'Bordeaux'
p575
sg13
I1
sg14
F4
sg15
S'Rome'
p576
sbag1
(g8
g3
NtRp577
(dp578
g11
S'Bordeaux'
p579
sg13
I1
sg14
F2
sg15
S'Stockholm'
p580
sbag1
(g8
g3
NtRp581
(dp582
g11
S'Bordeaux'
p583
sg13
I1
sg14
F2
sg15
S'Strasbourg'
p584
sbag1
(g8
g3
NtRp585
(dp586
g11
S'Bordeaux'
p587
sg13
I1
sg14
F2
sg15
S'Vienna'
p588
sbag1
(g8
g3
NtRp589
(dp590
g11
S'Bordeaux'
p591
sg13
I1
sg14
F2
sg15
S'Warsaw'
p592
sbag1
(g8
g3
NtRp593
(dp594
g11
S'Bordeaux'
p595
sg13
I1
sg14
F2
sg15
S'Zagreb'
p596
sbag1
(g8
g3
NtRp597
(dp598
g11
S'Bordeaux'
p599
sg13
I1
sg14
F2
sg15
S'Zurich'
p600
sbag1
(g8
g3
NtRp601
(dp602
g11
S'Brussels'
p603
sg13
I1
sg14
F2
sg15
S'Budapest'
p604
sbag1
(g8
g3
NtRp605
(dp606
g11
S'Brussels'
p607
sg13
I1
sg14
F2
sg15
S'Copenhagen'
p608
sbag1
(g8
g3
NtRp609
(dp610
g11
S'Brussels'
p611
sg13
I1
sg14
F2
sg15
S'Dublin'
p612
sbag1
(g8
g3
NtRp613
(dp614
g11
S'Brussels'
p615
sg13
I1
sg14
F10
sg15
S'Frankfurt'
p616
sbag1
(g8
g3
NtRp617
(dp618
g11
S'Brussels'
p619
sg13
I1
sg14
F4
sg15
S'Glasgow'
p620
sbag1
(g8
g3
NtRp621
(dp622
g11
S'Brussels'
p623
sg13
I1
sg14
F4
sg15
S'Hamburg'
p624
sbag1
(g8
g3
NtRp625
(dp626
g11
S'Brussels'
p627
sg13
I1
sg14
F10
sg15
S'London'
p628
sbag1
(g8
g3
NtRp629
(dp630
g11
S'Brussels'
p631
sg13
I1
sg14
F2
sg15
S'Lyon'
p632
sbag1
(g8
g3
NtRp633
(dp634
g11
S'Brussels'
p635
sg13
I1
sg14
F2
sg15
S'Madrid'
p636
sbag1
(g8
g3
NtRp637
(dp638
g11
S'Brussels'
p639
sg13
I1
sg14
F4
sg15
S'Milan'
p640
sbag1
(g8
g3
NtRp641
(dp642
g11
S'Brussels'
p643
sg13
I1
sg14
F4
sg15
S'Munich'
p644
sbag1
(g8
g3
NtRp645
(dp646
g11
S'Brussels'
p647
sg13
I1
sg14
F2
sg15
S'Oslo'
p648
sbag1
(g8
g3
NtRp649
(dp650
g11
S'Brussels'
p651
sg13
I1
sg14
F4
sg15
S'Paris'
p652
sbag1
(g8
g3
NtRp653
(dp654
g11
S'Brussels'
p655
sg13
I1
sg14
F2
sg15
S'Prague'
p656
sbag1
(g8
g3
NtRp657
(dp658
g11
S'Brussels'
p659
sg13
I1
sg14
F2
sg15
S'Rome'
p660
sbag1
(g8
g3
NtRp661
(dp662
g11
S'Brussels'
p663
sg13
I1
sg14
F2
sg15
S'Stockholm'
p664
sbag1
(g8
g3
NtRp665
(dp666
g11
S'Brussels'
p667
sg13
I1
sg14
F4
sg15
S'Strasbourg'
p668
sbag1
(g8
g3
NtRp669
(dp670
g11
S'Brussels'
p671
sg13
I1
sg14
F2
sg15
S'Vienna'
p672
sbag1
(g8
g3
NtRp673
(dp674
g11
S'Brussels'
p675
sg13
I1
sg14
F4
sg15
S'Warsaw'
p676
sbag1
(g8
g3
NtRp677
(dp678
g11
S'Brussels'
p679
sg13
I1
sg14
F2
sg15
S'Zagreb'
p680
sbag1
(g8
g3
NtRp681
(dp682
g11
S'Brussels'
p683
sg13
I1
sg14
F2
sg15
S'Zurich'
p684
sbag1
(g8
g3
NtRp685
(dp686
g11
S'Budapest'
p687
sg13
I1
sg14
F2
sg15
S'Copenhagen'
p688
sbag1
(g8
g3
NtRp689
(dp690
g11
S'Budapest'
p691
sg13
I1
sg14
F2
sg15
S'Dublin'
p692
sbag1
(g8
g3
NtRp693
(dp694
g11
S'Budapest'
p695
sg13
I1
sg14
F8
sg15
S'Frankfurt'
p696
sbag1
(g8
g3
NtRp697
(dp698
g11
S'Budapest'
p699
sg13
I1
sg14
F2
sg15
S'Glasgow'
p700
sbag1
(g8
g3
NtRp701
(dp702
g11
S'Budapest'
p703
sg13
I1
sg14
F2
sg15
S'Hamburg'
p704
sbag1
(g8
g3
NtRp705
(dp706
g11
S'Budapest'
p707
sg13
I1
sg14
F4
sg15
S'London'
p708
sbag1
(g8
g3
NtRp709
(dp710
g11
S'Budapest'
p711
sg13
I1
sg14
F2
sg15
S'Lyon'
p712
sbag1
(g8
g3
NtRp713
(dp714
g11
S'Budapest'
p715
sg13
I1
sg14
F2
sg15
S'Madrid'
p716
sbag1
(g8
g3
NtRp717
(dp718
g11
S'Budapest'
p719
sg13
I1
sg14
F2
sg15
S'Milan'
p720
sbag1
(g8
g3
NtRp721
(dp722
g11
S'Budapest'
p723
sg13
I1
sg14
F4
sg15
S'Munich'
p724
sbag1
(g8
g3
NtRp725
(dp726
g11
S'Budapest'
p727
sg13
I1
sg14
F2
sg15
S'Oslo'
p728
sbag1
(g8
g3
NtRp729
(dp730
g11
S'Budapest'
p731
sg13
I1
sg14
F2
sg15
S'Paris'
p732
sbag1
(g8
g3
NtRp733
(dp734
g11
S'Budapest'
p735
sg13
I1
sg14
F2
sg15
S'Prague'
p736
sbag1
(g8
g3
NtRp737
(dp738
g11
S'Budapest'
p739
sg13
I1
sg14
F2
sg15
S'Rome'
p740
sbag1
(g8
g3
NtRp741
(dp742
g11
S'Budapest'
p743
sg13
I1
sg14
F2
sg15
S'Stockholm'
p744
sbag1
(g8
g3
NtRp745
(dp746
g11
S'Budapest'
p747
sg13
I1
sg14
F2
sg15
S'Strasbourg'
p748
sbag1
(g8
g3
NtRp749
(dp750
g11
S'Budapest'
p751
sg13
I1
sg14
F4
sg15
S'Vienna'
p752
sbag1
(g8
g3
NtRp753
(dp754
g11
S'Budapest'
p755
sg13
I1
sg14
F4
sg15
S'Warsaw'
p756
sbag1
(g8
g3
NtRp757
(dp758
g11
S'Budapest'
p759
sg13
I1
sg14
F2
sg15
S'Zagreb'
p760
sbag1
(g8
g3
NtRp761
(dp762
g11
S'Budapest'
p763
sg13
I1
sg14
F2
sg15
S'Zurich'
p764
sbag1
(g8
g3
NtRp765
(dp766
g11
S'Copenhagen'
p767
sg13
I1
sg14
F2
sg15
S'Dublin'
p768
sbag1
(g8
g3
NtRp769
(dp770
g11
S'Copenhagen'
p771
sg13
I1
sg14
F4
sg15
S'Frankfurt'
p772
sbag1
(g8
g3
NtRp773
(dp774
g11
S'Copenhagen'
p775
sg13
I1
sg14
F2
sg15
S'Glasgow'
p776
sbag1
(g8
g3
NtRp777
(dp778
g11
S'Copenhagen'
p779
sg13
I1
sg14
F4
sg15
S'Hamburg'
p780
sbag1
(g8
g3
NtRp781
(dp782
g11
S'Copenhagen'
p783
sg13
I1
sg14
F4
sg15
S'London'
p784
sbag1
(g8
g3
NtRp785
(dp786
g11
S'Copenhagen'
p787
sg13
I1
sg14
F2
sg15
S'Lyon'
p788
sbag1
(g8
g3
NtRp789
(dp790
g11
S'Copenhagen'
p791
sg13
I1
sg14
F2
sg15
S'Madrid'
p792
sbag1
(g8
g3
NtRp793
(dp794
g11
S'Copenhagen'
p795
sg13
I1
sg14
F2
sg15
S'Milan'
p796
sbag1
(g8
g3
NtRp797
(dp798
g11
S'Copenhagen'
p799
sg13
I1
sg14
F2
sg15
S'Munich'
p800
sbag1
(g8
g3
NtRp801
(dp802
g11
S'Copenhagen'
p803
sg13
I1
sg14
F2
sg15
S'Oslo'
p804
sbag1
(g8
g3
NtRp805
(dp806
g11
S'Copenhagen'
p807
sg13
I1
sg14
F2
sg15
S'Paris'
p808
sbag1
(g8
g3
NtRp809
(dp810
g11
S'Copenhagen'
p811
sg13
I1
sg14
F2
sg15
S'Prague'
p812
sbag1
(g8
g3
NtRp813
(dp814
g11
S'Copenhagen'
p815
sg13
I1
sg14
F2
sg15
S'Rome'
p816
sbag1
(g8
g3
NtRp817
(dp818
g11
S'Copenhagen'
p819
sg13
I1
sg14
F2
sg15
S'Stockholm'
p820
sbag1
(g8
g3
NtRp821
(dp822
g11
S'Copenhagen'
p823
sg13
I1
sg14
F2
sg15
S'Strasbourg'
p824
sbag1
(g8
g3
NtRp825
(dp826
g11
S'Copenhagen'
p827
sg13
I1
sg14
F2
sg15
S'Vienna'
p828
sbag1
(g8
g3
NtRp829
(dp830
g11
S'Copenhagen'
p831
sg13
I1
sg14
F4
sg15
S'Warsaw'
p832
sbag1
(g8
g3
NtRp833
(dp834
g11
S'Copenhagen'
p835
sg13
I1
sg14
F2
sg15
S'Zagreb'
p836
sbag1
(g8
g3
NtRp837
(dp838
g11
S'Copenhagen'
p839
sg13
I1
sg14
F2
sg15
S'Zurich'
p840
sbag1
(g8
g3
NtRp841
(dp842
g11
S'Dublin'
p843
sg13
I1
sg14
F2
sg15
S'Frankfurt'
p844
sbag1
(g8
g3
NtRp845
(dp846
g11
S'Dublin'
p847
sg13
I1
sg14
F4
sg15
S'Glasgow'
p848
sbag1
(g8
g3
NtRp849
(dp850
g11
S'Dublin'
p851
sg13
I1
sg14
F2
sg15
S'Hamburg'
p852
sbag1
(g8
g3
NtRp853
(dp854
g11
S'Dublin'
p855
sg13
I1
sg14
F6
sg15
S'London'
p856
sbag1
(g8
g3
NtRp857
(dp858
g11
S'Dublin'
p859
sg13
I1
sg14
F2
sg15
S'Lyon'
p860
sbag1
(g8
g3
NtRp861
(dp862
g11
S'Dublin'
p863
sg13
I1
sg14
F2
sg15
S'Madrid'
p864
sbag1
(g8
g3
NtRp865
(dp866
g11
S'Dublin'
p867
sg13
I1
sg14
F2
sg15
S'Milan'
p868
sbag1
(g8
g3
NtRp869
(dp870
g11
S'Dublin'
p871
sg13
I1
sg14
F2
sg15
S'Munich'
p872
sbag1
(g8
g3
NtRp873
(dp874
g11
S'Dublin'
p875
sg13
I1
sg14
F2
sg15
S'Oslo'
p876
sbag1
(g8
g3
NtRp877
(dp878
g11
S'Dublin'
p879
sg13
I1
sg14
F2
sg15
S'Paris'
p880
sbag1
(g8
g3
NtRp881
(dp882
g11
S'Dublin'
p883
sg13
I1
sg14
F2
sg15
S'Prague'
p884
sbag1
(g8
g3
NtRp885
(dp886
g11
S'Dublin'
p887
sg13
I1
sg14
F2
sg15
S'Rome'
p888
sbag1
(g8
g3
NtRp889
(dp890
g11
S'Dublin'
p891
sg13
I1
sg14
F2
sg15
S'Stockholm'
p892
sbag1
(g8
g3
NtRp893
(dp894
g11
S'Dublin'
p895
sg13
I1
sg14
F2
sg15
S'Strasbourg'
p896
sbag1
(g8
g3
NtRp897
(dp898
g11
S'Dublin'
p899
sg13
I1
sg14
F2
sg15
S'Vienna'
p900
sbag1
(g8
g3
NtRp901
(dp902
g11
S'Dublin'
p903
sg13
I1
sg14
F2
sg15
S'Warsaw'
p904
sbag1
(g8
g3
NtRp905
(dp906
g11
S'Dublin'
p907
sg13
I1
sg14
F2
sg15
S'Zagreb'
p908
sbag1
(g8
g3
NtRp909
(dp910
g11
S'Dublin'
p911
sg13
I1
sg14
F2
sg15
S'Zurich'
p912
sbag1
(g8
g3
NtRp913
(dp914
g11
S'Frankfurt'
p915
sg13
I1
sg14
F14
sg15
S'Glasgow'
p916
sbag1
(g8
g3
NtRp917
(dp918
g11
S'Frankfurt'
p919
sg13
I1
sg14
F20
sg15
S'Hamburg'
p920
sbag1
(g8
g3
NtRp921
(dp922
g11
S'Frankfurt'
p923
sg13
I1
sg14
F20
sg15
S'London'
p924
sbag1
(g8
g3
NtRp925
(dp926
g11
S'Frankfurt'
p927
sg13
I1
sg14
F16
sg15
S'Lyon'
p928
sbag1
(g8
g3
NtRp929
(dp930
g11
S'Frankfurt'
p931
sg13
I1
sg14
F10
sg15
S'Madrid'
p932
sbag1
(g8
g3
NtRp933
(dp934
g11
S'Frankfurt'
p935
sg13
I1
sg14
F28
sg15
S'Milan'
p936
sbag1
(g8
g3
NtRp937
(dp938
g11
S'Frankfurt'
p939
sg13
I1
sg14
F32
sg15
S'Munich'
p940
sbag1
(g8
g3
NtRp941
(dp942
g11
S'Frankfurt'
p943
sg13
I1
sg14
F4
sg15
S'Oslo'
p944
sbag1
(g8
g3
NtRp945
(dp946
g11
S'Frankfurt'
p947
sg13
I1
sg14
F8
sg15
S'Paris'
p948
sbag1
(g8
g3
NtRp949
(dp950
g11
S'Frankfurt'
p951
sg13
I1
sg14
F14
sg15
S'Prague'
p952
sbag1
(g8
g3
NtRp953
(dp954
g11
S'Frankfurt'
p955
sg13
I1
sg14
F26
sg15
S'Rome'
p956
sbag1
(g8
g3
NtRp957
(dp958
g11
S'Frankfurt'
p959
sg13
I1
sg14
F8
sg15
S'Stockholm'
p960
sbag1
(g8
g3
NtRp961
(dp962
g11
S'Frankfurt'
p963
sg13
I1
sg14
F24
sg15
S'Strasbourg'
p964
sbag1
(g8
g3
NtRp965
(dp966
g11
S'Frankfurt'
p967
sg13
I1
sg14
F10
sg15
S'Vienna'
p968
sbag1
(g8
g3
NtRp969
(dp970
g11
S'Frankfurt'
p971
sg13
I1
sg14
F34
sg15
S'Warsaw'
p972
sbag1
(g8
g3
NtRp973
(dp974
g11
S'Frankfurt'
p975
sg13
I1
sg14
F4
sg15
S'Zagreb'
p976
sbag1
(g8
g3
NtRp977
(dp978
g11
S'Frankfurt'
p979
sg13
I1
sg14
F14
sg15
S'Zurich'
p980
sbag1
(g8
g3
NtRp981
(dp982
g11
S'Glasgow'
p983
sg13
I1
sg14
F8
sg15
S'Hamburg'
p984
sbag1
(g8
g3
NtRp985
(dp986
g11
S'Glasgow'
p987
sg13
I1
sg14
F54
sg15
S'London'
p988
sbag1
(g8
g3
NtRp989
(dp990
g11
S'Glasgow'
p991
sg13
I1
sg14
F4
sg15
S'Lyon'
p992
sbag1
(g8
g3
NtRp993
(dp994
g11
S'Glasgow'
p995
sg13
I1
sg14
F4
sg15
S'Madrid'
p996
sbag1
(g8
g3
NtRp997
(dp998
g11
S'Glasgow'
p999
sg13
I1
sg14
F8
sg15
S'Milan'
p1000
sbag1
(g8
g3
NtRp1001
(dp1002
g11
S'Glasgow'
p1003
sg13
I1
sg14
F8
sg15
S'Munich'
p1004
sbag1
(g8
g3
NtRp1005
(dp1006
g11
S'Glasgow'
p1007
sg13
I1
sg14
F4
sg15
S'Oslo'
p1008
sbag1
(g8
g3
NtRp1009
(dp1010
g11
S'Glasgow'
p1011
sg13
I1
sg14
F6
sg15
S'Paris'
p1012
sbag1
(g8
g3
NtRp1013
(dp1014
g11
S'Glasgow'
p1015
sg13
I1
sg14
F4
sg15
S'Prague'
p1016
sbag1
(g8
g3
NtRp1017
(dp1018
g11
S'Glasgow'
p1019
sg13
I1
sg14
F6
sg15
S'Rome'
p1020
sbag1
(g8
g3
NtRp1021
(dp1022
g11
S'Glasgow'
p1023
sg13
I1
sg14
F4
sg15
S'Stockholm'
p1024
sbag1
(g8
g3
NtRp1025
(dp1026
g11
S'Glasgow'
p1027
sg13
I1
sg14
F4
sg15
S'Strasbourg'
p1028
sbag1
(g8
g3
NtRp1029
(dp1030
g11
S'Glasgow'
p1031
sg13
I1
sg14
F4
sg15
S'Vienna'
p1032
sbag1
(g8
g3
NtRp1033
(dp1034
g11
S'Glasgow'
p1035
sg13
I1
sg14
F8
sg15
S'Warsaw'
p1036
sbag1
(g8
g3
NtRp1037
(dp1038
g11
S'Glasgow'
p1039
sg13
I1
sg14
F2
sg15
S'Zagreb'
p1040
sbag1
(g8
g3
NtRp1041
(dp1042
g11
S'Glasgow'
p1043
sg13
I1
sg14
F4
sg15
S'Zurich'
p1044
sbag1
(g8
g3
NtRp1045
(dp1046
g11
S'Hamburg'
p1047
sg13
I1
sg14
F14
sg15
S'London'
p1048
sbag1
(g8
g3
NtRp1049
(dp1050
g11
S'Hamburg'
p1051
sg13
I1
sg14
F4
sg15
S'Lyon'
p1052
sbag1
(g8
g3
NtRp1053
(dp1054
g11
S'Hamburg'
p1055
sg13
I1
sg14
F2
sg15
S'Madrid'
p1056
sbag1
(g8
g3
NtRp1057
(dp1058
g11
S'Hamburg'
p1059
sg13
I1
sg14
F6
sg15
S'Milan'
p1060
sbag1
(g8
g3
NtRp1061
(dp1062
g11
S'Hamburg'
p1063
sg13
I1
sg14
F6
sg15
S'Munich'
p1064
sbag1
(g8
g3
NtRp1065
(dp1066
g11
S'Hamburg'
p1067
sg13
I1
sg14
F2
sg15
S'Oslo'
p1068
sbag1
(g8
g3
NtRp1069
(dp1070
g11
S'Hamburg'
p1071
sg13
I1
sg14
F4
sg15
S'Paris'
p1072
sbag1
(g8
g3
NtRp1073
(dp1074
g11
S'Hamburg'
p1075
sg13
I1
sg14
F4
sg15
S'Prague'
p1076
sbag1
(g8
g3
NtRp1077
(dp1078
g11
S'Hamburg'
p1079
sg13
I1
sg14
F4
sg15
S'Rome'
p1080
sbag1
(g8
g3
NtRp1081
(dp1082
g11
S'Hamburg'
p1083
sg13
I1
sg14
F4
sg15
S'Stockholm'
p1084
sbag1
(g8
g3
NtRp1085
(dp1086
g11
S'Hamburg'
p1087
sg13
I1
sg14
F4
sg15
S'Strasbourg'
p1088
sbag1
(g8
g3
NtRp1089
(dp1090
g11
S'Hamburg'
p1091
sg13
I1
sg14
F2
sg15
S'Vienna'
p1092
sbag1
(g8
g3
NtRp1093
(dp1094
g11
S'Hamburg'
p1095
sg13
I1
sg14
F8
sg15
S'Warsaw'
p1096
sbag1
(g8
g3
NtRp1097
(dp1098
g11
S'Hamburg'
p1099
sg13
I1
sg14
F2
sg15
S'Zagreb'
p1100
sbag1
(g8
g3
NtRp1101
(dp1102
g11
S'Hamburg'
p1103
sg13
I1
sg14
F4
sg15
S'Zurich'
p1104
sbag1
(g8
g3
NtRp1105
(dp1106
g11
S'London'
p1107
sg13
I1
sg14
F8
sg15
S'Lyon'
p1108
sbag1
(g8
g3
NtRp1109
(dp1110
g11
S'London'
p1111
sg13
I1
sg14
F20
sg15
S'Madrid'
p1112
sbag1
(g8
g3
NtRp1113
(dp1114
g11
S'London'
p1115
sg13
I1
sg14
F12
sg15
S'Milan'
p1116
sbag1
(g8
g3
NtRp1117
(dp1118
g11
S'London'
p1119
sg13
I1
sg14
F12
sg15
S'Munich'
p1120
sbag1
(g8
g3
NtRp1121
(dp1122
g11
S'London'
p1123
sg13
I1
sg14
F4
sg15
S'Oslo'
p1124
sbag1
(g8
g3
NtRp1125
(dp1126
g11
S'London'
p1127
sg13
I1
sg14
F22
sg15
S'Paris'
p1128
sbag1
(g8
g3
NtRp1129
(dp1130
g11
S'London'
p1131
sg13
I1
sg14
F6
sg15
S'Prague'
p1132
sbag1
(g8
g3
NtRp1133
(dp1134
g11
S'London'
p1135
sg13
I1
sg14
F10
sg15
S'Rome'
p1136
sbag1
(g8
g3
NtRp1137
(dp1138
g11
S'London'
p1139
sg13
I1
sg14
F6
sg15
S'Stockholm'
p1140
sbag1
(g8
g3
NtRp1141
(dp1142
g11
S'London'
p1143
sg13
I1
sg14
F8
sg15
S'Strasbourg'
p1144
sbag1
(g8
g3
NtRp1145
(dp1146
g11
S'London'
p1147
sg13
I1
sg14
F4
sg15
S'Vienna'
p1148
sbag1
(g8
g3
NtRp1149
(dp1150
g11
S'London'
p1151
sg13
I1
sg14
F12
sg15
S'Warsaw'
p1152
sbag1
(g8
g3
NtRp1153
(dp1154
g11
S'London'
p1155
sg13
I1
sg14
F2
sg15
S'Zagreb'
p1156
sbag1
(g8
g3
NtRp1157
(dp1158
g11
S'London'
p1159
sg13
I1
sg14
F6
sg15
S'Zurich'
p1160
sbag1
(g8
g3
NtRp1161
(dp1162
g11
S'Lyon'
p1163
sg13
I1
sg14
F2
sg15
S'Madrid'
p1164
sbag1
(g8
g3
NtRp1165
(dp1166
g11
S'Lyon'
p1167
sg13
I1
sg14
F8
sg15
S'Milan'
p1168
sbag1
(g8
g3
NtRp1169
(dp1170
g11
S'Lyon'
p1171
sg13
I1
sg14
F4
sg15
S'Munich'
p1172
sbag1
(g8
g3
NtRp1173
(dp1174
g11
S'Lyon'
p1175
sg13
I1
sg14
F2
sg15
S'Oslo'
p1176
sbag1
(g8
g3
NtRp1177
(dp1178
g11
S'Lyon'
p1179
sg13
I1
sg14
F4
sg15
S'Paris'
p1180
sbag1
(g8
g3
NtRp1181
(dp1182
g11
S'Lyon'
p1183
sg13
I1
sg14
F2
sg15
S'Prague'
p1184
sbag1
(g8
g3
NtRp1185
(dp1186
g11
S'Lyon'
p1187
sg13
I1
sg14
F4
sg15
S'Rome'
p1188
sbag1
(g8
g3
NtRp1189
(dp1190
g11
S'Lyon'
p1191
sg13
I1
sg14
F2
sg15
S'Stockholm'
p1192
sbag1
(g8
g3
NtRp1193
(dp1194
g11
S'Lyon'
p1195
sg13
I1
sg14
F4
sg15
S'Strasbourg'
p1196
sbag1
(g8
g3
NtRp1197
(dp1198
g11
S'Lyon'
p1199
sg13
I1
sg14
F2
sg15
S'Vienna'
p1200
sbag1
(g8
g3
NtRp1201
(dp1202
g11
S'Lyon'
p1203
sg13
I1
sg14
F4
sg15
S'Warsaw'
p1204
sbag1
(g8
g3
NtRp1205
(dp1206
g11
S'Lyon'
p1207
sg13
I1
sg14
F2
sg15
S'Zagreb'
p1208
sbag1
(g8
g3
NtRp1209
(dp1210
g11
S'Lyon'
p1211
sg13
I1
sg14
F4
sg15
S'Zurich'
p1212
sbag1
(g8
g3
NtRp1213
(dp1214
g11
S'Madrid'
p1215
sg13
I1
sg14
F4
sg15
S'Milan'
p1216
sbag1
(g8
g3
NtRp1217
(dp1218
g11
S'Madrid'
p1219
sg13
I1
sg14
F4
sg15
S'Munich'
p1220
sbag1
(g8
g3
NtRp1221
(dp1222
g11
S'Madrid'
p1223
sg13
I1
sg14
F2
sg15
S'Oslo'
p1224
sbag1
(g8
g3
NtRp1225
(dp1226
g11
S'Madrid'
p1227
sg13
I1
sg14
F2
sg15
S'Paris'
p1228
sbag1
(g8
g3
NtRp1229
(dp1230
g11
S'Madrid'
p1231
sg13
I1
sg14
F2
sg15
S'Prague'
p1232
sbag1
(g8
g3
NtRp1233
(dp1234
g11
S'Madrid'
p1235
sg13
I1
sg14
F4
sg15
S'Rome'
p1236
sbag1
(g8
g3
NtRp1237
(dp1238
g11
S'Madrid'
p1239
sg13
I1
sg14
F2
sg15
S'Stockholm'
p1240
sbag1
(g8
g3
NtRp1241
(dp1242
g11
S'Madrid'
p1243
sg13
I1
sg14
F2
sg15
S'Strasbourg'
p1244
sbag1
(g8
g3
NtRp1245
(dp1246
g11
S'Madrid'
p1247
sg13
I1
sg14
F2
sg15
S'Vienna'
p1248
sbag1
(g8
g3
NtRp1249
(dp1250
g11
S'Madrid'
p1251
sg13
I1
sg14
F4
sg15
S'Warsaw'
p1252
sbag1
(g8
g3
NtRp1253
(dp1254
g11
S'Madrid'
p1255
sg13
I1
sg14
F2
sg15
S'Zagreb'
p1256
sbag1
(g8
g3
NtRp1257
(dp1258
g11
S'Madrid'
p1259
sg13
I1
sg14
F2
sg15
S'Zurich'
p1260
sbag1
(g8
g3
NtRp1261
(dp1262
g11
S'Milan'
p1263
sg13
I1
sg14
F12
sg15
S'Munich'
p1264
sbag1
(g8
g3
NtRp1265
(dp1266
g11
S'Milan'
p1267
sg13
I1
sg14
F2
sg15
S'Oslo'
p1268
sbag1
(g8
g3
NtRp1269
(dp1270
g11
S'Milan'
p1271
sg13
I1
sg14
F4
sg15
S'Paris'
p1272
sbag1
(g8
g3
NtRp1273
(dp1274
g11
S'Milan'
p1275
sg13
I1
sg14
F4
sg15
S'Prague'
p1276
sbag1
(g8
g3
NtRp1277
(dp1278
g11
S'Milan'
p1279
sg13
I1
sg14
F10
sg15
S'Rome'
p1280
sbag1
(g8
g3
NtRp1281
(dp1282
g11
S'Milan'
p1283
sg13
I1
sg14
F2
sg15
S'Stockholm'
p1284
sbag1
(g8
g3
NtRp1285
(dp1286
g11
S'Milan'
p1287
sg13
I1
sg14
F8
sg15
S'Strasbourg'
p1288
sbag1
(g8
g3
NtRp1289
(dp1290
g11
S'Milan'
p1291
sg13
I1
sg14
F4
sg15
S'Vienna'
p1292
sbag1
(g8
g3
NtRp1293
(dp1294
g11
S'Milan'
p1295
sg13
I1
sg14
F6
sg15
S'Warsaw'
p1296
sbag1
(g8
g3
NtRp1297
(dp1298
g11
S'Milan'
p1299
sg13
I1
sg14
F2
sg15
S'Zagreb'
p1300
sbag1
(g8
g3
NtRp1301
(dp1302
g11
S'Milan'
p1303
sg13
I1
sg14
F8
sg15
S'Zurich'
p1304
sbag1
(g8
g3
NtRp1305
(dp1306
g11
S'Munich'
p1307
sg13
I1
sg14
F2
sg15
S'Oslo'
p1308
sbag1
(g8
g3
NtRp1309
(dp1310
g11
S'Munich'
p1311
sg13
I1
sg14
F4
sg15
S'Paris'
p1312
sbag1
(g8
g3
NtRp1313
(dp1314
g11
S'Munich'
p1315
sg13
I1
sg14
F6
sg15
S'Prague'
p1316
sbag1
(g8
g3
NtRp1317
(dp1318
g11
S'Munich'
p1319
sg13
I1
sg14
F6
sg15
S'Rome'
p1320
sbag1
(g8
g3
NtRp1321
(dp1322
g11
S'Munich'
p1323
sg13
I1
sg14
F2
sg15
S'Stockholm'
p1324
sbag1
(g8
g3
NtRp1325
(dp1326
g11
S'Munich'
p1327
sg13
I1
sg14
F8
sg15
S'Strasbourg'
p1328
sbag1
(g8
g3
NtRp1329
(dp1330
g11
S'Munich'
p1331
sg13
I1
sg14
F4
sg15
S'Vienna'
p1332
sbag1
(g8
g3
NtRp1333
(dp1334
g11
S'Munich'
p1335
sg13
I1
sg14
F8
sg15
S'Warsaw'
p1336
sbag1
(g8
g3
NtRp1337
(dp1338
g11
S'Munich'
p1339
sg13
I1
sg14
F2
sg15
S'Zagreb'
p1340
sbag1
(g8
g3
NtRp1341
(dp1342
g11
S'Munich'
p1343
sg13
I1
sg14
F6
sg15
S'Zurich'
p1344
sbag1
(g8
g3
NtRp1345
(dp1346
g11
S'Oslo'
p1347
sg13
I1
sg14
F2
sg15
S'Paris'
p1348
sbag1
(g8
g3
NtRp1349
(dp1350
g11
S'Oslo'
p1351
sg13
I1
sg14
F2
sg15
S'Prague'
p1352
sbag1
(g8
g3
NtRp1353
(dp1354
g11
S'Oslo'
p1355
sg13
I1
sg14
F2
sg15
S'Rome'
p1356
sbag1
(g8
g3
NtRp1357
(dp1358
g11
S'Oslo'
p1359
sg13
I1
sg14
F2
sg15
S'Stockholm'
p1360
sbag1
(g8
g3
NtRp1361
(dp1362
g11
S'Oslo'
p1363
sg13
I1
sg14
F2
sg15
S'Strasbourg'
p1364
sbag1
(g8
g3
NtRp1365
(dp1366
g11
S'Oslo'
p1367
sg13
I1
sg14
F2
sg15
S'Vienna'
p1368
sbag1
(g8
g3
NtRp1369
(dp1370
g11
S'Oslo'
p1371
sg13
I1
sg14
F2
sg15
S'Warsaw'
p1372
sbag1
(g8
g3
NtRp1373
(dp1374
g11
S'Oslo'
p1375
sg13
I1
sg14
F2
sg15
S'Zagreb'
p1376
sbag1
(g8
g3
NtRp1377
(dp1378
g11
S'Oslo'
p1379
sg13
I1
sg14
F2
sg15
S'Zurich'
p1380
sbag1
(g8
g3
NtRp1381
(dp1382
g11
S'Paris'
p1383
sg13
I1
sg14
F2
sg15
S'Prague'
p1384
sbag1
(g8
g3
NtRp1385
(dp1386
g11
S'Paris'
p1387
sg13
I1
sg14
F4
sg15
S'Rome'
p1388
sbag1
(g8
g3
NtRp1389
(dp1390
g11
S'Paris'
p1391
sg13
I1
sg14
F2
sg15
S'Stockholm'
p1392
sbag1
(g8
g3
NtRp1393
(dp1394
g11
S'Paris'
p1395
sg13
I1
sg14
F4
sg15
S'Strasbourg'
p1396
sbag1
(g8
g3
NtRp1397
(dp1398
g11
S'Paris'
p1399
sg13
I1
sg14
F2
sg15
S'Vienna'
p1400
sbag1
(g8
g3
NtRp1401
(dp1402
g11
S'Paris'
p1403
sg13
I1
sg14
F4
sg15
S'Warsaw'
p1404
sbag1
(g8
g3
NtRp1405
(dp1406
g11
S'Paris'
p1407
sg13
I1
sg14
F2
sg15
S'Zagreb'
p1408
sbag1
(g8
g3
NtRp1409
(dp1410
g11
S'Paris'
p1411
sg13
I1
sg14
F2
sg15
S'Zurich'
p1412
sbag1
(g8
g3
NtRp1413
(dp1414
g11
S'Prague'
p1415
sg13
I1
sg14
F4
sg15
S'Rome'
p1416
sbag1
(g8
g3
NtRp1417
(dp1418
g11
S'Prague'
p1419
sg13
I1
sg14
F2
sg15
S'Stockholm'
p1420
sbag1
(g8
g3
NtRp1421
(dp1422
g11
S'Prague'
p1423
sg13
I1
sg14
F2
sg15
S'Strasbourg'
p1424
sbag1
(g8
g3
NtRp1425
(dp1426
g11
S'Prague'
p1427
sg13
I1
sg14
F4
sg15
S'Vienna'
p1428
sbag1
(g8
g3
NtRp1429
(dp1430
g11
S'Prague'
p1431
sg13
I1
sg14
F6
sg15
S'Warsaw'
p1432
sbag1
(g8
g3
NtRp1433
(dp1434
g11
S'Prague'
p1435
sg13
I1
sg14
F2
sg15
S'Zagreb'
p1436
sbag1
(g8
g3
NtRp1437
(dp1438
g11
S'Prague'
p1439
sg13
I1
sg14
F2
sg15
S'Zurich'
p1440
sbag1
(g8
g3
NtRp1441
(dp1442
g11
S'Rome'
p1443
sg13
I1
sg14
F2
sg15
S'Stockholm'
p1444
sbag1
(g8
g3
NtRp1445
(dp1446
g11
S'Rome'
p1447
sg13
I1
sg14
F4
sg15
S'Strasbourg'
p1448
sbag1
(g8
g3
NtRp1449
(dp1450
g11
S'Rome'
p1451
sg13
I1
sg14
F4
sg15
S'Vienna'
p1452
sbag1
(g8
g3
NtRp1453
(dp1454
g11
S'Rome'
p1455
sg13
I1
sg14
F6
sg15
S'Warsaw'
p1456
sbag1
(g8
g3
NtRp1457
(dp1458
g11
S'Rome'
p1459
sg13
I1
sg14
F2
sg15
S'Zagreb'
p1460
sbag1
(g8
g3
NtRp1461
(dp1462
g11
S'Rome'
p1463
sg13
I1
sg14
F4
sg15
S'Zurich'
p1464
sbag1
(g8
g3
NtRp1465
(dp1466
g11
S'Stockholm'
p1467
sg13
I1
sg14
F2
sg15
S'Strasbourg'
p1468
sbag1
(g8
g3
NtRp1469
(dp1470
g11
S'Stockholm'
p1471
sg13
I1
sg14
F2
sg15
S'Vienna'
p1472
sbag1
(g8
g3
NtRp1473
(dp1474
g11
S'Stockholm'
p1475
sg13
I1
sg14
F4
sg15
S'Warsaw'
p1476
sbag1
(g8
g3
NtRp1477
(dp1478
g11
S'Stockholm'
p1479
sg13
I1
sg14
F2
sg15
S'Zagreb'
p1480
sbag1
(g8
g3
NtRp1481
(dp1482
g11
S'Stockholm'
p1483
sg13
I1
sg14
F2
sg15
S'Zurich'
p1484
sbag1
(g8
g3
NtRp1485
(dp1486
g11
S'Strasbourg'
p1487
sg13
I1
sg14
F2
sg15
S'Vienna'
p1488
sbag1
(g8
g3
NtRp1489
(dp1490
g11
S'Strasbourg'
p1491
sg13
I1
sg14
F4
sg15
S'Warsaw'
p1492
sbag1
(g8
g3
NtRp1493
(dp1494
g11
S'Strasbourg'
p1495
sg13
I1
sg14
F2
sg15
S'Zagreb'
p1496
sbag1
(g8
g3
NtRp1497
(dp1498
g11
S'Strasbourg'
p1499
sg13
I1
sg14
F8
sg15
S'Zurich'
p1500
sbag1
(g8
g3
NtRp1501
(dp1502
g11
S'Vienna'
p1503
sg13
I1
sg14
F4
sg15
S'Warsaw'
p1504
sbag1
(g8
g3
NtRp1505
(dp1506
g11
S'Vienna'
p1507
sg13
I1
sg14
F2
sg15
S'Zagreb'
p1508
sbag1
(g8
g3
NtRp1509
(dp1510
g11
S'Vienna'
p1511
sg13
I1
sg14
F2
sg15
S'Zurich'
p1512
sbag1
(g8
g3
NtRp1513
(dp1514
g11
S'Warsaw'
p1515
sg13
I1
sg14
F2
sg15
S'Zagreb'
p1516
sbag1
(g8
g3
NtRp1517
(dp1518
g11
S'Warsaw'
p1519
sg13
I1
sg14
F4
sg15
S'Zurich'
p1520
sbag1
(g8
g3
NtRp1521
(dp1522
g11
S'Zagreb'
p1523
sg13
I1
sg14
F2
sg15
S'Zurich'
p1524
sbasS'substrate'
p1525
g1
(cdatamodel.substrate
Substrate
p1526
g3
NtRp1527
(dp1528
S'name'
p1529
S'nobel-eu'
p1530
sS'edges'
p1531
c__builtin__
set
p1532
((lp1533
(S'Lyon'
p1534
S'Zurich'
p1535
tp1536
a(S'Munich'
p1537
S'Milan'
p1538
tp1539
a(S'London'
p1540
S'Amsterdam'
p1541
tp1542
a(S'Frankfurt'
p1543
S'Brussels'
p1544
tp1545
a(S'Madrid'
p1546
S'Bordeaux'
p1547
tp1548
a(g1534
S'Paris'
p1549
tp1550
a(S'Zurich'
p1551
S'Strasbourg'
p1552
tp1553
a(S'Rome'
p1554
S'Athens'
p1555
tp1556
a(S'Zurich'
p1557
S'Milan'
p1558
tp1559
a(S'Paris'
p1560
S'London'
p1561
tp1562
a(S'Dublin'
p1563
S'Glasgow'
p1564
tp1565
a(S'Amsterdam'
p1566
g1544
tp1567
a(g1547
g1546
tp1568
a(S'Warsaw'
p1569
S'Budapest'
p1570
tp1571
a(g1555
g1554
tp1572
a(S'Brussels'
p1573
g1560
tp1574
a(S'Munich'
p1575
S'Vienna'
p1576
tp1577
a(g1560
g1573
tp1578
a(g1534
S'Barcelona'
p1579
tp1580
a(g1544
g1543
tp1581
a(g1560
S'Bordeaux'
p1582
tp1583
a(S'London'
p1584
S'Dublin'
p1585
tp1586
a(g1576
S'Zagreb'
p1587
tp1588
a(S'Prague'
p1589
g1576
tp1590
a(S'Amsterdam'
p1591
g1564
tp1592
a(g1579
g1534
tp1593
a(S'Belgrade'
p1594
S'Zagreb'
p1595
tp1596
a(S'Warsaw'
p1597
S'Berlin'
p1598
tp1599
a(g1570
g1569
tp1600
a(g1595
g1594
tp1601
a(S'Berlin'
p1602
g1537
tp1603
a(S'Copenhagen'
p1604
S'Oslo'
p1605
tp1606
a(g1570
S'Prague'
p1607
tp1608
a(g1555
S'Belgrade'
p1609
tp1610
a(S'Belgrade'
p1611
g1570
tp1612
a(S'Milan'
p1613
S'Rome'
p1614
tp1615
a(g1541
g1540
tp1616
a(S'Rome'
p1617
g1595
tp1618
a(g1598
g1597
tp1619
a(S'Paris'
p1620
g1552
tp1621
a(g1598
S'Prague'
p1622
tp1623
a(S'Frankfurt'
p1624
S'Hamburg'
p1625
tp1626
a(g1587
g1576
tp1627
a(g1598
S'Hamburg'
p1628
tp1629
a(g1614
g1613
tp1630
a(g1585
g1584
tp1631
a(g1552
g1551
tp1632
a(g1549
g1534
tp1633
a(g1537
S'Frankfurt'
p1634
tp1635
a(g1625
g1624
tp1636
a(g1552
S'Frankfurt'
p1637
tp1638
a(g1576
g1575
tp1639
a(g1558
g1557
tp1640
a(S'Stockholm'
p1641
g1605
tp1642
a(g1570
g1611
tp1643
a(g1609
g1555
tp1644
a(g1538
g1537
tp1645
a(g1607
g1570
tp1646
a(g1544
g1566
tp1647
a(S'Copenhagen'
p1648
g1598
tp1649
a(g1605
g1604
tp1650
a(S'Stockholm'
p1651
S'Warsaw'
p1652
tp1653
a(g1652
g1651
tp1654
a(S'Madrid'
p1655
S'Barcelona'
p1656
tp1657
a(g1552
g1620
tp1658
a(g1595
g1617
tp1659
a(g1598
g1648
tp1660
a(g1605
g1641
tp1661
a(g1537
g1602
tp1662
a(g1622
g1598
tp1663
a(g1582
g1560
tp1664
a(g1564
g1563
tp1665
a(g1625
S'Amsterdam'
p1666
tp1667
a(g1576
g1589
tp1668
a(g1561
g1560
tp1669
a(g1564
g1591
tp1670
a(g1656
g1655
tp1671
a(g1628
g1598
tp1672
a(g1666
g1625
tp1673
a(g1637
g1552
tp1674
a(g1535
g1534
tp1675
a(g1634
g1537
tp1676
atRp1677
sS'shortest_paths_costs'
p1678
NsS'out_neighbors'
p1679
(dp1680
g1534
(lp1681
g1549
ag1579
ag1535
asg1552
(lp1682
g1620
ag1637
ag1551
asg1560
(lp1683
g1534
ag1552
ag1582
ag1573
ag1561
asg1605
(lp1684
g1604
ag1641
asg1555
(lp1685
g1554
ag1609
asg1564
(lp1686
g1591
ag1563
asg1576
(lp1687
g1589
ag1575
ag1587
asg1595
(lp1688
g1576
ag1617
ag1594
asg1537
(lp1689
g1576
ag1602
ag1634
ag1538
asg1598
(lp1690
g1537
ag1648
ag1597
ag1622
ag1628
asg1625
(lp1691
g1598
ag1666
ag1624
asg1544
(lp1692
g1560
ag1566
ag1543
asg1570
(lp1693
g1607
ag1611
ag1569
asg1585
(lp1694
g1564
ag1584
asg1656
(lp1695
g1534
ag1655
asg1614
(lp1696
g1555
ag1595
ag1613
asg1651
(lp1697
g1605
ag1652
asg1547
(lp1698
g1560
ag1546
asS'Frankfurt'
p1699
(lp1700
g1552
ag1537
ag1625
ag1544
asS'Belgrade'
p1701
(lp1702
g1555
ag1595
ag1570
asg1557
(lp1703
g1534
ag1552
ag1558
asS'Madrid'
p1704
(lp1705
g1656
ag1547
asS'Prague'
p1706
(lp1707
g1576
ag1598
ag1570
asS'Milan'
p1708
(lp1709
g1537
ag1614
ag1557
asg1540
(lp1710
g1560
ag1585
ag1541
asS'Amsterdam'
p1711
(lp1712
g1564
ag1625
ag1544
ag1540
asS'Copenhagen'
p1713
(lp1714
g1605
ag1598
asS'Warsaw'
p1715
(lp1716
g1598
ag1570
ag1651
assS'nodes'
p1717
g1532
((lp1718
g1534
ag1552
ag1560
ag1605
ag1555
ag1564
ag1576
ag1595
ag1537
ag1598
ag1625
ag1544
ag1570
ag1585
ag1656
ag1614
ag1651
ag1547
ag1699
ag1701
ag1557
ag1704
ag1706
ag1708
ag1540
ag1711
ag1713
ag1715
atRp1719
sS'edge_cost'
p1720
(dp1721
(g1534
g1535
tp1722
F0.0017741464048250267
s(g1537
g1538
tp1723
F0.001765993211654661
s(g1540
g1541
tp1724
F0.0016525704259011025
s(g1543
g1544
tp1725
F0.0015021957828311209
s(g1546
g1547
tp1726
F0.0026809482761696707
s(g1534
g1549
tp1727
F0.0019187592093681555
s(g1551
g1552
tp1728
F0.00070688193064903236
s(g1554
g1555
tp1729
F0.0052435173548379599
s(g1557
g1558
tp1730
F0.0011198183938310954
s(g1560
g1561
tp1731
F0.0017499291906426892
s(g1563
g1564
tp1732
F0.0014310181511066179
s(g1566
g1544
tp1733
F0.00095618925558367724
s(g1547
g1546
tp1734
F0.0026809482761696707
s(g1569
g1570
tp1735
F0.0027529998452878591
s(g1555
g1554
tp1736
F0.0052435173548379599
s(g1573
g1560
tp1737
F0.0013156215640912272
s(g1575
g1576
tp1738
F0.001810882096303162
s(g1560
g1573
tp1739
F0.0013156215640912272
s(g1534
g1579
tp1740
F0.0025351432876509921
s(g1544
g1543
tp1741
F0.0015021957828311209
s(g1560
g1582
tp1742
F0.0024266445827081013
s(g1584
g1585
tp1743
F0.0023233203304183362
s(g1576
g1587
tp1744
F0.0014868969909321121
s(g1589
g1576
tp1745
F0.0012832068543930609
s(g1591
g1564
tp1746
F0.0033809569114595706
s(g1579
g1534
tp1747
F0.0025351432876509921
s(g1594
g1595
tp1748
F0.0019228721374024973
s(g1597
g1598
tp1749
F0.0025125068789056486
s(g1570
g1569
tp1750
F0.0027529998452878591
s(g1595
g1594
tp1751
F0.0019228721374024973
s(g1602
g1537
tp1752
F0.0024487143574389693
s(g1604
g1605
tp1753
F0.0023615115637307623
s(g1570
g1607
tp1754
F0.002322685779589391
s(g1555
g1609
tp1755
F0.004051431844682889
s(g1611
g1570
tp1756
F0.0016374448904587558
s(g1613
g1614
tp1757
F0.0024467970928227015
s(g1541
g1540
tp1758
F0.0016525704259011025
s(g1617
g1595
tp1759
F0.0025615033565348933
s(g1598
g1597
tp1760
F0.0025125068789056486
s(g1620
g1552
tp1761
F0.0019372118436038384
s(g1598
g1622
tp1762
F0.0013122308872832434
s(g1624
g1625
tp1763
F0.0018951701991309809
s(g1587
g1576
tp1764
F0.0014868969909321121
s(g1598
g1628
tp1765
F0.0012176005615231579
s(g1614
g1613
tp1766
F0.0024467970928227015
s(g1585
g1584
tp1767
F0.0023233203304183362
s(g1552
g1551
tp1768
F0.00070688193064903236
s(g1549
g1534
tp1769
F0.0019187592093681555
s(g1537
g1634
tp1770
F0.0015450769931705062
s(g1625
g1624
tp1771
F0.0018951701991309809
s(g1552
g1637
tp1772
F0.0010135230221483811
s(g1576
g1575
tp1773
F0.001810882096303162
s(g1558
g1557
tp1774
F0.0011198183938310954
s(g1641
g1605
tp1775
F0.0021537209723036192
s(g1570
g1611
tp1776
F0.0016374448904587558
s(g1609
g1555
tp1777
F0.004051431844682889
s(g1538
g1537
tp1778
F0.001765993211654661
s(g1607
g1570
tp1779
F0.002322685779589391
s(g1544
g1566
tp1780
F0.00095618925558367724
s(g1648
g1598
tp1781
F0.0017469151507285728
s(g1605
g1604
tp1782
F0.0023615115637307623
s(g1651
g1652
tp1783
F0.0039977094684472943
s(g1652
g1651
tp1784
F0.0039977094684472943
s(g1655
g1656
tp1785
F0.0023729359319318534
s(g1552
g1620
tp1786
F0.0019372118436038384
s(g1595
g1617
tp1787
F0.0025615033565348933
s(g1598
g1648
tp1788
F0.0017469151507285728
s(g1605
g1641
tp1789
F0.0021537209723036192
s(g1537
g1602
tp1790
F0.0024487143574389693
s(g1622
g1598
tp1791
F0.0013122308872832434
s(g1582
g1560
tp1792
F0.0024266445827081013
s(g1564
g1563
tp1793
F0.0014310181511066179
s(g1625
g1666
tp1794
F0.0019490093309251298
s(g1576
g1589
tp1795
F0.0012832068543930609
s(g1561
g1560
tp1796
F0.0017499291906426892
s(g1564
g1591
tp1797
F0.0033809569114595706
s(g1656
g1655
tp1798
F0.0023729359319318534
s(g1628
g1598
tp1799
F0.0012176005615231579
s(g1666
g1625
tp1800
F0.0019490093309251298
s(g1637
g1552
tp1801
F0.0010135230221483811
s(g1535
g1534
tp1802
F0.0017741464048250267
s(g1634
g1537
tp1803
F0.0015450769931705062
ssS'in_neighbors'
p1804
(dp1805
g1534
(lp1806
g1549
ag1579
ag1535
asg1552
(lp1807
g1620
ag1637
ag1551
asg1560
(lp1808
g1534
ag1552
ag1582
ag1573
ag1561
asg1605
(lp1809
g1604
ag1641
asg1555
(lp1810
g1554
ag1609
asg1564
(lp1811
g1591
ag1563
asg1576
(lp1812
g1589
ag1575
ag1587
asg1595
(lp1813
g1576
ag1617
ag1594
asg1537
(lp1814
g1576
ag1602
ag1634
ag1538
asg1598
(lp1815
g1537
ag1648
ag1597
ag1622
ag1628
asg1625
(lp1816
g1598
ag1666
ag1624
asg1544
(lp1817
g1560
ag1566
ag1543
asg1570
(lp1818
g1607
ag1611
ag1569
asg1585
(lp1819
g1564
ag1584
asg1656
(lp1820
g1534
ag1655
asg1614
(lp1821
g1555
ag1595
ag1613
asg1651
(lp1822
g1605
ag1652
asg1547
(lp1823
g1560
ag1546
asg1699
(lp1824
g1552
ag1537
ag1625
ag1544
asg1701
(lp1825
g1555
ag1595
ag1570
asg1557
(lp1826
g1534
ag1552
ag1558
asg1704
(lp1827
g1656
ag1547
asg1706
(lp1828
g1576
ag1598
ag1570
asg1708
(lp1829
g1537
ag1614
ag1557
asg1540
(lp1830
g1560
ag1585
ag1541
asg1711
(lp1831
g1564
ag1625
ag1544
ag1540
asg1713
(lp1832
g1605
ag1598
asg1715
(lp1833
g1598
ag1570
ag1651
assbsS'id'
p1834
S'nobel-eu_prototype'
p1835
sS'communication_pairs_at_node'
p1836
(dp1837
g68
(lp1838
g65
ag169
ag269
ag365
ag457
ag545
ag629
ag709
ag785
ag857
ag925
ag989
ag1049
ag1105
ag1161
ag1165
ag1169
ag1173
ag1177
ag1181
ag1185
ag1189
ag1193
ag1197
ag1201
ag1205
ag1209
asg104
(lp1839
g101
ag205
ag305
ag401
ag493
ag581
ag665
ag745
ag821
ag893
ag961
ag1025
ag1085
ag1141
ag1193
ag1241
ag1285
ag1325
ag1361
ag1393
ag1421
ag1445
ag1465
ag1485
ag1489
ag1493
ag1497
asg88
(lp1840
g85
ag189
ag289
ag385
ag477
ag565
ag649
ag729
ag805
ag877
ag945
ag1009
ag1069
ag1125
ag1177
ag1225
ag1269
ag1309
ag1345
ag1381
ag1385
ag1389
ag1393
ag1397
ag1401
ag1405
ag1409
asg84
(lp1841
g81
ag185
ag285
ag381
ag473
ag561
ag645
ag725
ag801
ag873
ag941
ag1005
ag1065
ag1121
ag1173
ag1221
ag1265
ag1305
ag1345
ag1349
ag1353
ag1357
ag1361
ag1365
ag1369
ag1373
ag1377
asg16
(lp1842
g9
ag121
ag125
ag129
ag133
ag137
ag141
ag145
ag149
ag153
ag157
ag161
ag165
ag169
ag173
ag177
ag181
ag185
ag189
ag193
ag197
ag201
ag205
ag209
ag213
ag217
ag221
asg56
(lp1843
g53
ag157
ag257
ag353
ag445
ag533
ag617
ag697
ag773
ag845
ag913
ag981
ag985
ag989
ag993
ag997
ag1001
ag1005
ag1009
ag1013
ag1017
ag1021
ag1025
ag1029
ag1033
ag1037
ag1041
asg108
(lp1844
g105
ag209
ag309
ag405
ag497
ag585
ag669
ag749
ag825
ag897
ag965
ag1029
ag1089
ag1145
ag1197
ag1245
ag1289
ag1329
ag1365
ag1397
ag1425
ag1449
ag1469
ag1485
ag1501
ag1505
ag1509
asg116
(lp1845
g113
ag217
ag317
ag413
ag505
ag593
ag677
ag757
ag833
ag905
ag973
ag1037
ag1097
ag1153
ag1205
ag1253
ag1297
ag1337
ag1373
ag1405
ag1433
ag1457
ag1477
ag1493
ag1505
ag1513
ag1521
asg80
(lp1846
g77
ag181
ag281
ag377
ag469
ag557
ag641
ag721
ag797
ag869
ag937
ag1001
ag1061
ag1117
ag1169
ag1217
ag1261
ag1305
ag1309
ag1313
ag1317
ag1321
ag1325
ag1329
ag1333
ag1337
ag1341
asg28
(lp1847
g25
ag129
ag229
ag325
ag421
ag425
ag429
ag433
ag437
ag441
ag445
ag449
ag453
ag457
ag461
ag465
ag469
ag473
ag477
ag481
ag485
ag489
ag493
ag497
ag501
ag505
ag509
asg60
(lp1848
g57
ag161
ag261
ag357
ag449
ag537
ag621
ag701
ag777
ag849
ag917
ag981
ag1045
ag1049
ag1053
ag1057
ag1061
ag1065
ag1069
ag1073
ag1077
ag1081
ag1085
ag1089
ag1093
ag1097
ag1101
asg36
(lp1849
g33
ag137
ag237
ag333
ag425
ag513
ag601
ag605
ag609
ag613
ag617
ag621
ag625
ag629
ag633
ag637
ag641
ag645
ag649
ag653
ag657
ag661
ag665
ag669
ag673
ag677
ag681
asg40
(lp1850
g37
ag141
ag241
ag337
ag429
ag517
ag601
ag685
ag689
ag693
ag697
ag701
ag705
ag709
ag713
ag717
ag721
ag725
ag729
ag733
ag737
ag741
ag745
ag749
ag753
ag757
ag761
asg48
(lp1851
g45
ag149
ag249
ag345
ag437
ag525
ag609
ag689
ag765
ag841
ag845
ag849
ag853
ag857
ag861
ag865
ag869
ag873
ag877
ag881
ag885
ag889
ag893
ag897
ag901
ag905
ag909
asg20
(lp1852
g17
ag121
ag225
ag229
ag233
ag237
ag241
ag245
ag249
ag253
ag257
ag261
ag265
ag269
ag273
ag277
ag281
ag285
ag289
ag293
ag297
ag301
ag305
ag309
ag313
ag317
ag321
asg96
(lp1853
g93
ag197
ag297
ag393
ag485
ag573
ag657
ag737
ag813
ag885
ag953
ag1017
ag1077
ag1133
ag1185
ag1233
ag1277
ag1317
ag1353
ag1385
ag1413
ag1441
ag1445
ag1449
ag1453
ag1457
ag1461
asg100
(lp1854
g97
ag201
ag301
ag397
ag489
ag577
ag661
ag741
ag817
ag889
ag957
ag1021
ag1081
ag1137
ag1189
ag1237
ag1281
ag1321
ag1357
ag1389
ag1417
ag1441
ag1465
ag1469
ag1473
ag1477
ag1481
asg32
(lp1855
g29
ag133
ag233
ag329
ag421
ag513
ag517
ag521
ag525
ag529
ag533
ag537
ag541
ag545
ag549
ag553
ag557
ag561
ag565
ag569
ag573
ag577
ag581
ag585
ag589
ag593
ag597
asg52
(lp1856
g49
ag153
ag253
ag349
ag441
ag529
ag613
ag693
ag769
ag841
ag913
ag917
ag921
ag925
ag929
ag933
ag937
ag941
ag945
ag949
ag953
ag957
ag961
ag965
ag969
ag973
ag977
asg24
(lp1857
g21
ag125
ag225
ag325
ag329
ag333
ag337
ag341
ag345
ag349
ag353
ag357
ag361
ag365
ag369
ag373
ag377
ag381
ag385
ag389
ag393
ag397
ag401
ag405
ag409
ag413
ag417
asg120
(lp1858
g117
ag221
ag321
ag417
ag509
ag597
ag681
ag761
ag837
ag909
ag977
ag1041
ag1101
ag1157
ag1209
ag1257
ag1301
ag1341
ag1377
ag1409
ag1437
ag1461
ag1481
ag1497
ag1509
ag1517
ag1521
asg72
(lp1859
g69
ag173
ag273
ag369
ag461
ag549
ag633
ag713
ag789
ag861
ag929
ag993
ag1053
ag1109
ag1161
ag1213
ag1217
ag1221
ag1225
ag1229
ag1233
ag1237
ag1241
ag1245
ag1249
ag1253
ag1257
asg92
(lp1860
g89
ag193
ag293
ag389
ag481
ag569
ag653
ag733
ag809
ag881
ag949
ag1013
ag1073
ag1129
ag1181
ag1229
ag1273
ag1313
ag1349
ag1381
ag1413
ag1417
ag1421
ag1425
ag1429
ag1433
ag1437
asg76
(lp1861
g73
ag177
ag277
ag373
ag465
ag553
ag637
ag717
ag793
ag865
ag933
ag997
ag1057
ag1113
ag1165
ag1213
ag1261
ag1265
ag1269
ag1273
ag1277
ag1281
ag1285
ag1289
ag1293
ag1297
ag1301
asg64
(lp1862
g61
ag165
ag265
ag361
ag453
ag541
ag625
ag705
ag781
ag853
ag921
ag985
ag1045
ag1105
ag1109
ag1113
ag1117
ag1121
ag1125
ag1129
ag1133
ag1137
ag1141
ag1145
ag1149
ag1153
ag1157
asg12
(lp1863
g9
ag17
ag21
ag25
ag29
ag33
ag37
ag41
ag45
ag49
ag53
ag57
ag61
ag65
ag69
ag73
ag77
ag81
ag85
ag89
ag93
ag97
ag101
ag105
ag109
ag113
ag117
asg44
(lp1864
g41
ag145
ag245
ag341
ag433
ag521
ag605
ag685
ag765
ag769
ag773
ag777
ag781
ag785
ag789
ag793
ag797
ag801
ag805
ag809
ag813
ag817
ag821
ag825
ag829
ag833
ag837
asg112
(lp1865
g109
ag213
ag313
ag409
ag501
ag589
ag673
ag753
ag829
ag901
ag969
ag1033
ag1093
ag1149
ag1201
ag1249
ag1293
ag1333
ag1369
ag1401
ag1429
ag1453
ag1473
ag1489
ag1501
ag1513
ag1517
assS'middleboxes'
p1866
(dp1867
g1534
F271.14285714285717
sg1552
F271.14285714285717
sg1560
F271.14285714285717
sg1605
F271.14285714285717
sg1555
F271.14285714285717
sg1564
F271.14285714285717
sg1576
F271.14285714285717
sg1595
F271.14285714285717
sg1537
F271.14285714285717
sg1598
F271.14285714285717
sg1625
F271.14285714285717
sg1544
F271.14285714285717
sg1570
F271.14285714285717
sg1585
F271.14285714285717
sg1656
F271.14285714285717
sg1614
F271.14285714285717
sg1651
F271.14285714285717
sg1547
F271.14285714285717
sg1699
F271.14285714285717
sg1701
F271.14285714285717
sg1557
F271.14285714285717
sg1704
F271.14285714285717
sg1706
F271.14285714285717
sg1708
F271.14285714285717
sg1540
F271.14285714285717
sg1711
F271.14285714285717
sg1713
F271.14285714285717
sg1715
F271.14285714285717
ssb.